; Function Attrs: nounwind uwtable
define dso_local range(i32 0, 2) i32 @ASN1_TIME_normalize(ptr noundef %0) local_unnamed_addr #1 {
  %2 = alloca %struct.tm, align 8
  call void @llvm.lifetime.start.p0(i64 56, ptr nonnull %2) #8
  %3 = icmp eq ptr %0, null
  br i1 %3, label %ossl_asn1_time_from_tm.exit, label %ASN1_TIME_to_tm.exit

ASN1_TIME_to_tm.exit:                             ; preds = %1
  %4 = call i32 @ossl_asn1_time_to_tm(ptr noundef nonnull %2, ptr noundef nonnull readonly %0)
  %.not = icmp eq i32 %4, 0
  br i1 %.not, label %ossl_asn1_time_from_tm.exit, label %.thread.i

.thread.i:                                        ; preds = %ASN1_TIME_to_tm.exit
  %5 = getelementptr inbounds nuw i8, ptr %2, i64 20
  %6 = load i32, ptr %5, align 4, !tbaa !17
  %7 = add i32 %6, -150
  %or.cond.i.i = icmp ult i32 %7, -100
  %8 = call i32 @ASN1_STRING_set(ptr noundef nonnull %0, ptr noundef null, i32 noundef 20) #8
  %.not43.i = icmp eq i32 %8, 0
  br i1 %.not43.i, label %ossl_asn1_time_from_tm.exit, label %9

9:                                                ; preds = %.thread.i
  %.45.i = select i1 %or.cond.i.i, i32 24, i32 23
  %10 = getelementptr inbounds nuw i8, ptr %0, i64 4
  store i32 %.45.i, ptr %10, align 4, !tbaa !4
  %11 = getelementptr inbounds nuw i8, ptr %0, i64 8
  %12 = load ptr, ptr %11, align 8, !tbaa !14
  %13 = getelementptr inbounds nuw i8, ptr %2, i64 16
  %14 = load i32, ptr %13, align 8, !tbaa !19
  %15 = icmp eq i32 %14, 2147483647
  br i1 %15, label %ossl_asn1_time_from_tm.exit, label %16

16:                                               ; preds = %9
  %17 = load i32, ptr %5, align 4, !tbaa !17
  br i1 %or.cond.i.i, label %18, label %31

18:                                               ; preds = %16
  %19 = icmp sgt i32 %17, 2147481747
  br i1 %19, label %ossl_asn1_time_from_tm.exit, label %20

20:                                               ; preds = %18
  %21 = add nsw i32 %17, 1900
  %22 = add nsw i32 %14, 1
  %23 = getelementptr inbounds nuw i8, ptr %2, i64 12
  %24 = load i32, ptr %23, align 4, !tbaa !20
  %25 = getelementptr inbounds nuw i8, ptr %2, i64 8
  %26 = load i32, ptr %25, align 8, !tbaa !23
  %27 = getelementptr inbounds nuw i8, ptr %2, i64 4
  %28 = load i32, ptr %27, align 4, !tbaa !24
  %29 = load i32, ptr %2, align 8, !tbaa !25
  %30 = call i32 (ptr, i64, ptr, ...) @BIO_snprintf(ptr noundef %12, i64 noundef 20, ptr noundef nonnull @.str.1, i32 noundef %21, i32 noundef %22, i32 noundef %24, i32 noundef %26, i32 noundef %28, i32 noundef %29) #8
  br label %42

31:                                               ; preds = %16
  %32 = srem i32 %17, 100
  %33 = add nsw i32 %14, 1
  %34 = getelementptr inbounds nuw i8, ptr %2, i64 12
  %35 = load i32, ptr %34, align 4, !tbaa !20
  %36 = getelementptr inbounds nuw i8, ptr %2, i64 8
  %37 = load i32, ptr %36, align 8, !tbaa !23
  %38 = getelementptr inbounds nuw i8, ptr %2, i64 4
  %39 = load i32, ptr %38, align 4, !tbaa !24
  %40 = load i32, ptr %2, align 8, !tbaa !25
  %41 = call i32 (ptr, i64, ptr, ...) @BIO_snprintf(ptr noundef %12, i64 noundef 20, ptr noundef nonnull @.str.2, i32 noundef %32, i32 noundef %33, i32 noundef %35, i32 noundef %37, i32 noundef %39, i32 noundef %40) #8
  br label %42

42:                                               ; preds = %31, %20
  %storemerge.i = phi i32 [ %41, %31 ], [ %30, %20 ]
  store i32 %storemerge.i, ptr %0, align 8, !tbaa !13
  br label %ossl_asn1_time_from_tm.exit

ossl_asn1_time_from_tm.exit:                      ; preds = %42, %18, %9, %.thread.i, %1, %ASN1_TIME_to_tm.exit
  %.0 = phi i32 [ 0, %ASN1_TIME_to_tm.exit ], [ 0, %1 ], [ 1, %42 ], [ 0, %18 ], [ 0, %9 ], [ 0, %.thread.i ]
  call void @llvm.lifetime.end.p0(i64 56, ptr nonnull %2) #8
  ret i32 %.0
}